target datalayout = "e-m:e-p270:32:32-p271:32:32-p272:64:64-i64:64-i128:128-f80:128-n8:16:32:64-S128"
target triple = "x86_64-pc-linux-gnu"

%struct.UCPTrie = type { ptr, %union.UCPTrieData, i32, i32, i32, i16, i8, i8, i32, i16, i16, i32, i32 }
%union.UCPTrieData = type { ptr }

@.str.10 = private unnamed_addr constant [1 x i8] zeroinitializer, align 1
@.str.14 = private unnamed_addr constant [3 x i8] c"  \00", align 1

; Function Attrs: mustprogress uwtable
define void @usrc_writeUCPTrieArrays(ptr noundef %0, ptr noundef %1, ptr noundef %2, ptr noundef %3, ptr noundef %4, i32 noundef %5) #1 {
  %7 = alloca ptr, align 8
  %8 = alloca ptr, align 8
  %9 = alloca ptr, align 8
  %10 = alloca ptr, align 8
  %11 = alloca ptr, align 8
  %12 = alloca i32, align 4
  %13 = alloca ptr, align 8
  %14 = alloca i32, align 4
  store ptr %0, ptr %7, align 8, !tbaa !25
  store ptr %1, ptr %8, align 8, !tbaa !17
  store ptr %2, ptr %9, align 8, !tbaa !17
  store ptr %3, ptr %10, align 8, !tbaa !52
  store ptr %4, ptr %11, align 8, !tbaa !17
  store i32 %5, ptr %12, align 4, !tbaa !54
  call void @llvm.lifetime.start.p0(i64 8, ptr %13) #16
  %15 = load i32, ptr %12, align 4, !tbaa !54
  %16 = icmp eq i32 %15, 1
  %17 = select i1 %16, ptr @.str.14, ptr @.str.10
  store ptr %17, ptr %13, align 8, !tbaa !17
  %18 = load ptr, ptr %7, align 8, !tbaa !25
  %19 = load ptr, ptr %8, align 8, !tbaa !17
  %20 = load ptr, ptr %10, align 8, !tbaa !52
  %21 = getelementptr inbounds nuw %struct.UCPTrie, ptr %20, i32 0, i32 0
  %22 = load ptr, ptr %21, align 8, !tbaa !56
  %23 = load ptr, ptr %10, align 8, !tbaa !52
  %24 = getelementptr inbounds nuw %struct.UCPTrie, ptr %23, i32 0, i32 2
  %25 = load i32, ptr %24, align 8, !tbaa !58
  %26 = load ptr, ptr %13, align 8, !tbaa !17
  %27 = load ptr, ptr %11, align 8, !tbaa !17
  call void @usrc_writeArray(ptr noundef %18, ptr noundef %19, ptr noundef %22, i32 noundef 16, i32 noundef %25, ptr noundef %26, ptr noundef %27)
  call void @llvm.lifetime.start.p0(i64 4, ptr %14) #16
  %28 = load ptr, ptr %10, align 8, !tbaa !52
  %29 = getelementptr inbounds nuw %struct.UCPTrie, ptr %28, i32 0, i32 7
  %30 = load i8, ptr %29, align 1, !tbaa !59
  %31 = sext i8 %30 to i32
  %32 = icmp eq i32 %31, 0
  br i1 %32, label %33, label %34

33:                                               ; preds = %6
  br label %50

34:                                               ; preds = %6
  %35 = load ptr, ptr %10, align 8, !tbaa !52
  %36 = getelementptr inbounds nuw %struct.UCPTrie, ptr %35, i32 0, i32 7
  %37 = load i8, ptr %36, align 1, !tbaa !59
  %38 = sext i8 %37 to i32
  %39 = icmp eq i32 %38, 1
  br i1 %39, label %40, label %41

40:                                               ; preds = %34
  br label %48

41:                                               ; preds = %34
  %42 = load ptr, ptr %10, align 8, !tbaa !52
  %43 = getelementptr inbounds nuw %struct.UCPTrie, ptr %42, i32 0, i32 7
  %44 = load i8, ptr %43, align 1, !tbaa !59
  %45 = sext i8 %44 to i32
  %46 = icmp eq i32 %45, 2
  %47 = select i1 %46, i32 8, i32 0
  br label %48

48:                                               ; preds = %41, %40
  %49 = phi i32 [ 32, %40 ], [ %47, %41 ]
  br label %50

50:                                               ; preds = %48, %33
  %51 = phi i32 [ 16, %33 ], [ %49, %48 ]
  store i32 %51, ptr %14, align 4, !tbaa !14
  %52 = load ptr, ptr %7, align 8, !tbaa !25
  %53 = load ptr, ptr %9, align 8, !tbaa !17
  %54 = load ptr, ptr %10, align 8, !tbaa !52
  %55 = getelementptr inbounds nuw %struct.UCPTrie, ptr %54, i32 0, i32 1
  %56 = load ptr, ptr %55, align 8, !tbaa !27
  %57 = load i32, ptr %14, align 4, !tbaa !14
  %58 = load ptr, ptr %10, align 8, !tbaa !52
  %59 = getelementptr inbounds nuw %struct.UCPTrie, ptr %58, i32 0, i32 3
  %60 = load i32, ptr %59, align 4, !tbaa !60
  %61 = load ptr, ptr %13, align 8, !tbaa !17
  %62 = load ptr, ptr %11, align 8, !tbaa !17
  call void @usrc_writeArray(ptr noundef %52, ptr noundef %53, ptr noundef %56, i32 noundef %57, i32 noundef %60, ptr noundef %61, ptr noundef %62)
  call void @llvm.lifetime.end.p0(i64 4, ptr %14) #16
  call void @llvm.lifetime.end.p0(i64 8, ptr %13) #16
  ret void
}