; Function Attrs: mustprogress nofree nounwind uwtable
define void @usrc_writeUCPTrieArrays(ptr noundef captures(none) %0, ptr noundef %1, ptr noundef %2, ptr noundef readonly captures(none) %3, ptr noundef %4, i32 noundef %5) local_unnamed_addr #13 {
  %7 = icmp eq i32 %5, 1
  %8 = select i1 %7, ptr @.str.14, ptr @.str.10
  %9 = load ptr, ptr %3, align 8, !tbaa !38
  %10 = getelementptr inbounds nuw i8, ptr %3, i64 16
  %11 = load i32, ptr %10, align 8, !tbaa !40
  tail call void @usrc_writeArray(ptr noundef %0, ptr noundef %1, ptr noundef %9, i32 noundef 16, i32 noundef %11, ptr noundef nonnull %8, ptr noundef %4)
  %12 = getelementptr inbounds nuw i8, ptr %3, i64 31
  %13 = load i8, ptr %12, align 1, !tbaa !41
  switch i8 %13, label %14 [
    i8 0, label %17
    i8 1, label %.fold.split
  ]

14:                                               ; preds = %6
  %15 = icmp eq i8 %13, 2
  %16 = select i1 %15, i32 8, i32 0
  br label %17

.fold.split:                                      ; preds = %6
  br label %17

17:                                               ; preds = %6, %.fold.split, %14
  %18 = phi i32 [ 16, %6 ], [ %16, %14 ], [ 32, %.fold.split ]
  %19 = getelementptr inbounds nuw i8, ptr %3, i64 8
  %20 = load ptr, ptr %19, align 8, !tbaa !15
  %21 = getelementptr inbounds nuw i8, ptr %3, i64 20
  %22 = load i32, ptr %21, align 4, !tbaa !42
  tail call void @usrc_writeArray(ptr noundef %0, ptr noundef %2, ptr noundef %20, i32 noundef %18, i32 noundef %22, ptr noundef nonnull %8, ptr noundef %4)
  ret void
}